; Function Attrs: nofree nosync nounwind memory(readwrite, inaccessiblemem: none) uwtable
define void @Cbs2_ManDeleteFanout_rec(ptr noundef readonly captures(none) %0, i32 noundef %1) local_unnamed_addr #16 {
  %3 = getelementptr inbounds nuw i8, ptr %0, i64 48
  %4 = getelementptr i8, ptr %0, i64 232
  %5 = getelementptr i8, ptr %0, i64 248
  %.val.i.pre = load ptr, ptr %5, align 8, !tbaa !35
  br label %tailrecurse

tailrecurse:                                      ; preds = %30, %2
  %.val2125 = phi ptr [ %.val.i.pre, %2 ], [ %.val21, %30 ]
  %.tr23 = phi i32 [ %1, %2 ], [ %25, %30 ]
  %6 = load ptr, ptr %3, align 8, !tbaa !38
  %7 = getelementptr i8, ptr %6, i64 32
  %.val = load ptr, ptr %7, align 8, !tbaa !67
  %8 = sext i32 %.tr23 to i64
  %9 = getelementptr inbounds %struct.Gia_Obj_t_, ptr %.val, i64 %8
  %10 = shl nsw i32 %.tr23, 1
  %.val6.i = load ptr, ptr %4, align 8, !tbaa !35
  %11 = sext i32 %10 to i64
  %12 = getelementptr inbounds i32, ptr %.val6.i, i64 %11
  store i32 0, ptr %12, align 4, !tbaa !60
  %13 = or disjoint i32 %10, 1
  %14 = sext i32 %13 to i64
  %15 = getelementptr inbounds i32, ptr %.val6.i, i64 %14
  store i32 0, ptr %15, align 4, !tbaa !60
  %16 = getelementptr inbounds i32, ptr %.val2125, i64 %8
  store i32 0, ptr %16, align 4, !tbaa !60
  %.val18 = load i64, ptr %9, align 4
  %17 = and i64 %.val18, 2684354559
  %narrow.i.not = icmp eq i64 %17, 2684354559
  br i1 %narrow.i.not, label %34, label %18

18:                                               ; preds = %tailrecurse
  %19 = trunc i64 %.val18 to i32
  %20 = and i32 %19, 536870911
  %21 = sub nsw i32 %.tr23, %20
  %22 = lshr i64 %.val18, 32
  %23 = trunc nuw i64 %22 to i32
  %24 = and i32 %23, 536870911
  %25 = sub nsw i32 %.tr23, %24
  %26 = sext i32 %21 to i64
  %27 = getelementptr inbounds i32, ptr %.val2125, i64 %26
  %28 = load i32, ptr %27, align 4, !tbaa !60
  %.not16 = icmp eq i32 %28, 0
  br i1 %.not16, label %30, label %29

29:                                               ; preds = %18
  tail call void @Cbs2_ManDeleteFanout_rec(ptr noundef nonnull %0, i32 noundef %21)
  %.val21.pre = load ptr, ptr %5, align 8, !tbaa !35
  br label %30

30:                                               ; preds = %29, %18
  %.val21 = phi ptr [ %.val21.pre, %29 ], [ %.val2125, %18 ]
  %31 = sext i32 %25 to i64
  %32 = getelementptr inbounds i32, ptr %.val21, i64 %31
  %33 = load i32, ptr %32, align 4, !tbaa !60
  %.not17 = icmp eq i32 %33, 0
  br i1 %.not17, label %34, label %tailrecurse

34:                                               ; preds = %30, %tailrecurse
  ret void
}